; Function Attrs: null_pointer_is_valid sspstrong uwtable
define internal noundef ptr @addr_uat_copy_cb(ptr noundef returned writeonly captures(ret: address, provenance) initializes((0, 20)) %0, ptr noundef readonly captures(none) %1, i64 %2) #0 {
  %4 = load ptr, ptr %1, align 8
  %5 = getelementptr inbounds nuw i8, ptr %1, i64 8
  %6 = load i32, ptr %5, align 8
  %7 = zext i32 %6 to i64
  %8 = tail call ptr @g_memdup2(ptr noundef %4, i64 noundef %7) #20
  store ptr %8, ptr %0, align 8
  %9 = load i32, ptr %5, align 8
  %10 = getelementptr inbounds nuw i8, ptr %0, i64 8
  store i32 %9, ptr %10, align 8
  %11 = getelementptr inbounds nuw i8, ptr %1, i64 12
  %12 = load i32, ptr %11, align 4
  %13 = getelementptr inbounds nuw i8, ptr %0, i64 12
  store i32 %12, ptr %13, align 4
  %14 = getelementptr inbounds nuw i8, ptr %1, i64 16
  %15 = load i32, ptr %14, align 8
  %16 = getelementptr inbounds nuw i8, ptr %0, i64 16
  store i32 %15, ptr %16, align 8
  ret ptr %0
}